target datalayout = "e-m:e-p270:32:32-p271:32:32-p272:64:64-i64:64-i128:128-f80:128-n8:16:32:64-S128"
target triple = "x86_64-pc-linux-gnu"

@.str.17 = private unnamed_addr constant [25 x i8] c"../openssl/test/bntest.c\00", align 1
@.str.69 = private unnamed_addr constant [2 x i8] c"0\00", align 1
@.str.123 = private unnamed_addr constant [2 x i8] c"1\00", align 1
@.str.242 = private unnamed_addr constant [3 x i8] c"bn\00", align 1
@.str.246 = private unnamed_addr constant [2 x i8] c"3\00", align 1
@.str.266 = private unnamed_addr constant [4 x i8] c"256\00", align 1
@.str.268 = private unnamed_addr constant [4 x i8] c"-42\00", align 1
@.str.272 = private unnamed_addr constant [2 x i8] c"2\00", align 1
@.str.273 = private unnamed_addr constant [3 x i8] c"-0\00", align 1
@.str.276 = private unnamed_addr constant [18 x i8] c"parseBN(&bn, \220\22)\00", align 1
@.str.277 = private unnamed_addr constant [20 x i8] c"parseBN(&bn, \22256\22)\00", align 1
@.str.278 = private unnamed_addr constant [6 x i8] c"0x256\00", align 1
@.str.279 = private unnamed_addr constant [20 x i8] c"parseBN(&bn, \22-42\22)\00", align 1
@.str.280 = private unnamed_addr constant [5 x i8] c"0x42\00", align 1
@.str.281 = private unnamed_addr constant [19 x i8] c"parseBN(&bn, \22cb\22)\00", align 1
@.str.282 = private unnamed_addr constant [3 x i8] c"cb\00", align 1
@.str.283 = private unnamed_addr constant [5 x i8] c"0xCB\00", align 1
@.str.284 = private unnamed_addr constant [19 x i8] c"parseBN(&bn, \22-0\22)\00", align 1
@.str.285 = private unnamed_addr constant [47 x i8] c"parseBN(&bn, \22abctrailing garbage is ignored\22)\00", align 1
@.str.286 = private unnamed_addr constant [31 x i8] c"abctrailing garbage is ignored\00", align 1
@.str.287 = private unnamed_addr constant [6 x i8] c"0xabc\00", align 1

; Function Attrs: nounwind uwtable
define internal i32 @parseBN(ptr noundef %0, ptr noundef %1) #0 {
  %3 = alloca ptr, align 8
  %4 = alloca ptr, align 8
  store ptr %0, ptr %3, align 8, !tbaa !79
  store ptr %1, ptr %4, align 8, !tbaa !25
  %5 = load ptr, ptr %3, align 8, !tbaa !79
  store ptr null, ptr %5, align 8, !tbaa !13
  %6 = load ptr, ptr %3, align 8, !tbaa !79
  %7 = load ptr, ptr %4, align 8, !tbaa !25
  %8 = call i32 @BN_hex2bn(ptr noundef %6, ptr noundef %7)
  ret i32 %8
}

; Function Attrs: nounwind uwtable
define internal i32 @test_hex2bn() #0 {
  %1 = alloca ptr, align 8
  %2 = alloca i32, align 4
  call void @llvm.lifetime.start.p0(i64 8, ptr %1) #7
  store ptr null, ptr %1, align 8, !tbaa !13
  call void @llvm.lifetime.start.p0(i64 4, ptr %2) #7
  store i32 0, ptr %2, align 4, !tbaa !4
  %3 = call i32 @parseBN(ptr noundef %1, ptr noundef @.str.69)
  %4 = call i32 @test_int_eq(ptr noundef @.str.17, i32 noundef 2071, ptr noundef @.str.276, ptr noundef @.str.123, i32 noundef %3, i32 noundef 1)
  %5 = icmp ne i32 %4, 0
  br i1 %5, label %6, label %18

6:                                                ; preds = %0
  %7 = load ptr, ptr %1, align 8, !tbaa !13
  %8 = call i32 @test_BN_eq_zero(ptr noundef @.str.17, i32 noundef 2072, ptr noundef @.str.242, ptr noundef %7)
  %9 = icmp ne i32 %8, 0
  br i1 %9, label %10, label %18

10:                                               ; preds = %6
  %11 = load ptr, ptr %1, align 8, !tbaa !13
  %12 = call i32 @test_BN_ge_zero(ptr noundef @.str.17, i32 noundef 2073, ptr noundef @.str.242, ptr noundef %11)
  %13 = icmp ne i32 %12, 0
  br i1 %13, label %14, label %18

14:                                               ; preds = %10
  %15 = load ptr, ptr %1, align 8, !tbaa !13
  %16 = call i32 @test_BN_even(ptr noundef @.str.17, i32 noundef 2074, ptr noundef @.str.242, ptr noundef %15)
  %17 = icmp ne i32 %16, 0
  br i1 %17, label %19, label %18

18:                                               ; preds = %14, %10, %6, %0
  br label %146

19:                                               ; preds = %14
  %20 = load ptr, ptr %1, align 8, !tbaa !13
  call void @BN_free(ptr noundef %20)
  store ptr null, ptr %1, align 8, !tbaa !13
  %21 = call i32 @parseBN(ptr noundef %1, ptr noundef @.str.266)
  %22 = call i32 @test_int_eq(ptr noundef @.str.17, i32 noundef 2079, ptr noundef @.str.277, ptr noundef @.str.246, i32 noundef %21, i32 noundef 3)
  %23 = icmp ne i32 %22, 0
  br i1 %23, label %24, label %44

24:                                               ; preds = %19
  %25 = load ptr, ptr %1, align 8, !tbaa !13
  %26 = call i32 @test_BN_eq_word(ptr noundef @.str.17, i32 noundef 2080, ptr noundef @.str.242, ptr noundef @.str.278, ptr noundef %25, i64 noundef 598)
  %27 = icmp ne i32 %26, 0
  br i1 %27, label %28, label %44

28:                                               ; preds = %24
  %29 = load ptr, ptr %1, align 8, !tbaa !13
  %30 = call i32 @test_BN_ge_zero(ptr noundef @.str.17, i32 noundef 2081, ptr noundef @.str.242, ptr noundef %29)
  %31 = icmp ne i32 %30, 0
  br i1 %31, label %32, label %44

32:                                               ; preds = %28
  %33 = load ptr, ptr %1, align 8, !tbaa !13
  %34 = call i32 @test_BN_gt_zero(ptr noundef @.str.17, i32 noundef 2082, ptr noundef @.str.242, ptr noundef %33)
  %35 = icmp ne i32 %34, 0
  br i1 %35, label %36, label %44

36:                                               ; preds = %32
  %37 = load ptr, ptr %1, align 8, !tbaa !13
  %38 = call i32 @test_BN_ne_zero(ptr noundef @.str.17, i32 noundef 2083, ptr noundef @.str.242, ptr noundef %37)
  %39 = icmp ne i32 %38, 0
  br i1 %39, label %40, label %44

40:                                               ; preds = %36
  %41 = load ptr, ptr %1, align 8, !tbaa !13
  %42 = call i32 @test_BN_even(ptr noundef @.str.17, i32 noundef 2084, ptr noundef @.str.242, ptr noundef %41)
  %43 = icmp ne i32 %42, 0
  br i1 %43, label %45, label %44

44:                                               ; preds = %40, %36, %32, %28, %24, %19
  br label %146

45:                                               ; preds = %40
  %46 = load ptr, ptr %1, align 8, !tbaa !13
  call void @BN_free(ptr noundef %46)
  store ptr null, ptr %1, align 8, !tbaa !13
  %47 = call i32 @parseBN(ptr noundef %1, ptr noundef @.str.268)
  %48 = call i32 @test_int_eq(ptr noundef @.str.17, i32 noundef 2089, ptr noundef @.str.279, ptr noundef @.str.246, i32 noundef %47, i32 noundef 3)
  %49 = icmp ne i32 %48, 0
  br i1 %49, label %50, label %70

50:                                               ; preds = %45
  %51 = load ptr, ptr %1, align 8, !tbaa !13
  %52 = call i32 @test_BN_abs_eq_word(ptr noundef @.str.17, i32 noundef 2090, ptr noundef @.str.242, ptr noundef @.str.280, ptr noundef %51, i64 noundef 66)
  %53 = icmp ne i32 %52, 0
  br i1 %53, label %54, label %70

54:                                               ; preds = %50
  %55 = load ptr, ptr %1, align 8, !tbaa !13
  %56 = call i32 @test_BN_lt_zero(ptr noundef @.str.17, i32 noundef 2091, ptr noundef @.str.242, ptr noundef %55)
  %57 = icmp ne i32 %56, 0
  br i1 %57, label %58, label %70

58:                                               ; preds = %54
  %59 = load ptr, ptr %1, align 8, !tbaa !13
  %60 = call i32 @test_BN_le_zero(ptr noundef @.str.17, i32 noundef 2092, ptr noundef @.str.242, ptr noundef %59)
  %61 = icmp ne i32 %60, 0
  br i1 %61, label %62, label %70

62:                                               ; preds = %58
  %63 = load ptr, ptr %1, align 8, !tbaa !13
  %64 = call i32 @test_BN_ne_zero(ptr noundef @.str.17, i32 noundef 2093, ptr noundef @.str.242, ptr noundef %63)
  %65 = icmp ne i32 %64, 0
  br i1 %65, label %66, label %70

66:                                               ; preds = %62
  %67 = load ptr, ptr %1, align 8, !tbaa !13
  %68 = call i32 @test_BN_even(ptr noundef @.str.17, i32 noundef 2094, ptr noundef @.str.242, ptr noundef %67)
  %69 = icmp ne i32 %68, 0
  br i1 %69, label %71, label %70

70:                                               ; preds = %66, %62, %58, %54, %50, %45
  br label %146

71:                                               ; preds = %66
  %72 = load ptr, ptr %1, align 8, !tbaa !13
  call void @BN_free(ptr noundef %72)
  store ptr null, ptr %1, align 8, !tbaa !13
  %73 = call i32 @parseBN(ptr noundef %1, ptr noundef @.str.282)
  %74 = call i32 @test_int_eq(ptr noundef @.str.17, i32 noundef 2099, ptr noundef @.str.281, ptr noundef @.str.272, i32 noundef %73, i32 noundef 2)
  %75 = icmp ne i32 %74, 0
  br i1 %75, label %76, label %96

76:                                               ; preds = %71
  %77 = load ptr, ptr %1, align 8, !tbaa !13
  %78 = call i32 @test_BN_eq_word(ptr noundef @.str.17, i32 noundef 2100, ptr noundef @.str.242, ptr noundef @.str.283, ptr noundef %77, i64 noundef 203)
  %79 = icmp ne i32 %78, 0
  br i1 %79, label %80, label %96

80:                                               ; preds = %76
  %81 = load ptr, ptr %1, align 8, !tbaa !13
  %82 = call i32 @test_BN_ge_zero(ptr noundef @.str.17, i32 noundef 2101, ptr noundef @.str.242, ptr noundef %81)
  %83 = icmp ne i32 %82, 0
  br i1 %83, label %84, label %96

84:                                               ; preds = %80
  %85 = load ptr, ptr %1, align 8, !tbaa !13
  %86 = call i32 @test_BN_gt_zero(ptr noundef @.str.17, i32 noundef 2102, ptr noundef @.str.242, ptr noundef %85)
  %87 = icmp ne i32 %86, 0
  br i1 %87, label %88, label %96

88:                                               ; preds = %84
  %89 = load ptr, ptr %1, align 8, !tbaa !13
  %90 = call i32 @test_BN_ne_zero(ptr noundef @.str.17, i32 noundef 2103, ptr noundef @.str.242, ptr noundef %89)
  %91 = icmp ne i32 %90, 0
  br i1 %91, label %92, label %96

92:                                               ; preds = %88
  %93 = load ptr, ptr %1, align 8, !tbaa !13
  %94 = call i32 @test_BN_odd(ptr noundef @.str.17, i32 noundef 2104, ptr noundef @.str.242, ptr noundef %93)
  %95 = icmp ne i32 %94, 0
  br i1 %95, label %97, label %96

96:                                               ; preds = %92, %88, %84, %80, %76, %71
  br label %146

97:                                               ; preds = %92
  %98 = load ptr, ptr %1, align 8, !tbaa !13
  call void @BN_free(ptr noundef %98)
  store ptr null, ptr %1, align 8, !tbaa !13
  %99 = call i32 @parseBN(ptr noundef %1, ptr noundef @.str.273)
  %100 = call i32 @test_int_eq(ptr noundef @.str.17, i32 noundef 2109, ptr noundef @.str.284, ptr noundef @.str.272, i32 noundef %99, i32 noundef 2)
  %101 = icmp ne i32 %100, 0
  br i1 %101, label %102, label %118

102:                                              ; preds = %97
  %103 = load ptr, ptr %1, align 8, !tbaa !13
  %104 = call i32 @test_BN_eq_zero(ptr noundef @.str.17, i32 noundef 2110, ptr noundef @.str.242, ptr noundef %103)
  %105 = icmp ne i32 %104, 0
  br i1 %105, label %106, label %118

106:                                              ; preds = %102
  %107 = load ptr, ptr %1, align 8, !tbaa !13
  %108 = call i32 @test_BN_ge_zero(ptr noundef @.str.17, i32 noundef 2111, ptr noundef @.str.242, ptr noundef %107)
  %109 = icmp ne i32 %108, 0
  br i1 %109, label %110, label %118

110:                                              ; preds = %106
  %111 = load ptr, ptr %1, align 8, !tbaa !13
  %112 = call i32 @test_BN_le_zero(ptr noundef @.str.17, i32 noundef 2112, ptr noundef @.str.242, ptr noundef %111)
  %113 = icmp ne i32 %112, 0
  br i1 %113, label %114, label %118

114:                                              ; preds = %110
  %115 = load ptr, ptr %1, align 8, !tbaa !13
  %116 = call i32 @test_BN_even(ptr noundef @.str.17, i32 noundef 2113, ptr noundef @.str.242, ptr noundef %115)
  %117 = icmp ne i32 %116, 0
  br i1 %117, label %119, label %118

118:                                              ; preds = %114, %110, %106, %102, %97
  br label %146

119:                                              ; preds = %114
  %120 = load ptr, ptr %1, align 8, !tbaa !13
  call void @BN_free(ptr noundef %120)
  store ptr null, ptr %1, align 8, !tbaa !13
  %121 = call i32 @parseBN(ptr noundef %1, ptr noundef @.str.286)
  %122 = call i32 @test_int_eq(ptr noundef @.str.17, i32 noundef 2118, ptr noundef @.str.285, ptr noundef @.str.246, i32 noundef %121, i32 noundef 3)
  %123 = icmp ne i32 %122, 0
  br i1 %123, label %124, label %144

124:                                              ; preds = %119
  %125 = load ptr, ptr %1, align 8, !tbaa !13
  %126 = call i32 @test_BN_eq_word(ptr noundef @.str.17, i32 noundef 2119, ptr noundef @.str.242, ptr noundef @.str.287, ptr noundef %125, i64 noundef 2748)
  %127 = icmp ne i32 %126, 0
  br i1 %127, label %128, label %144

128:                                              ; preds = %124
  %129 = load ptr, ptr %1, align 8, !tbaa !13
  %130 = call i32 @test_BN_ge_zero(ptr noundef @.str.17, i32 noundef 2120, ptr noundef @.str.242, ptr noundef %129)
  %131 = icmp ne i32 %130, 0
  br i1 %131, label %132, label %144

132:                                              ; preds = %128
  %133 = load ptr, ptr %1, align 8, !tbaa !13
  %134 = call i32 @test_BN_gt_zero(ptr noundef @.str.17, i32 noundef 2121, ptr noundef @.str.242, ptr noundef %133)
  %135 = icmp ne i32 %134, 0
  br i1 %135, label %136, label %144

136:                                              ; preds = %132
  %137 = load ptr, ptr %1, align 8, !tbaa !13
  %138 = call i32 @test_BN_ne_zero(ptr noundef @.str.17, i32 noundef 2122, ptr noundef @.str.242, ptr noundef %137)
  %139 = icmp ne i32 %138, 0
  br i1 %139, label %140, label %144

140:                                              ; preds = %136
  %141 = load ptr, ptr %1, align 8, !tbaa !13
  %142 = call i32 @test_BN_even(ptr noundef @.str.17, i32 noundef 2123, ptr noundef @.str.242, ptr noundef %141)
  %143 = icmp ne i32 %142, 0
  br i1 %143, label %145, label %144

144:                                              ; preds = %140, %136, %132, %128, %124, %119
  br label %146

145:                                              ; preds = %140
  store i32 1, ptr %2, align 4, !tbaa !4
  br label %146

146:                                              ; preds = %145, %144, %118, %96, %70, %44, %18
  %147 = load ptr, ptr %1, align 8, !tbaa !13
  call void @BN_free(ptr noundef %147)
  %148 = load i32, ptr %2, align 4, !tbaa !4
  call void @llvm.lifetime.end.p0(i64 4, ptr %2) #7
  call void @llvm.lifetime.end.p0(i64 8, ptr %1) #7
  ret i32 %148
}