; Function Attrs: nounwind uwtable
define internal range(i32 0, 2) i32 @test_hex2bn() #1 {
  %1 = alloca ptr, align 8
  call void @llvm.lifetime.start.p0(i64 8, ptr nonnull %1) #8
  store ptr null, ptr %1, align 8, !tbaa !21
  %2 = call i32 @BN_hex2bn(ptr noundef nonnull %1, ptr noundef nonnull @.str.69) #8
  %3 = call i32 @test_int_eq(ptr noundef nonnull @.str.17, i32 noundef 2071, ptr noundef nonnull @.str.276, ptr noundef nonnull @.str.123, i32 noundef %2, i32 noundef 1) #8
  %.not = icmp eq i32 %3, 0
  br i1 %.not, label %105, label %4

4:                                                ; preds = %0
  %5 = load ptr, ptr %1, align 8, !tbaa !21
  %6 = call i32 @test_BN_eq_zero(ptr noundef nonnull @.str.17, i32 noundef 2072, ptr noundef nonnull @.str.242, ptr noundef %5) #8
  %.not1 = icmp eq i32 %6, 0
  br i1 %.not1, label %105, label %7

7:                                                ; preds = %4
  %8 = load ptr, ptr %1, align 8, !tbaa !21
  %9 = call i32 @test_BN_ge_zero(ptr noundef nonnull @.str.17, i32 noundef 2073, ptr noundef nonnull @.str.242, ptr noundef %8) #8
  %.not2 = icmp eq i32 %9, 0
  br i1 %.not2, label %105, label %10

10:                                               ; preds = %7
  %11 = load ptr, ptr %1, align 8, !tbaa !21
  %12 = call i32 @test_BN_even(ptr noundef nonnull @.str.17, i32 noundef 2074, ptr noundef nonnull @.str.242, ptr noundef %11) #8
  %.not3 = icmp eq i32 %12, 0
  br i1 %.not3, label %105, label %13

13:                                               ; preds = %10
  %14 = load ptr, ptr %1, align 8, !tbaa !21
  call void @BN_free(ptr noundef %14) #8
  store ptr null, ptr %1, align 8, !tbaa !21
  %15 = call i32 @BN_hex2bn(ptr noundef nonnull %1, ptr noundef nonnull @.str.266) #8
  %16 = call i32 @test_int_eq(ptr noundef nonnull @.str.17, i32 noundef 2079, ptr noundef nonnull @.str.277, ptr noundef nonnull @.str.246, i32 noundef %15, i32 noundef 3) #8
  %.not4 = icmp eq i32 %16, 0
  br i1 %.not4, label %105, label %17

17:                                               ; preds = %13
  %18 = load ptr, ptr %1, align 8, !tbaa !21
  %19 = call i32 @test_BN_eq_word(ptr noundef nonnull @.str.17, i32 noundef 2080, ptr noundef nonnull @.str.242, ptr noundef nonnull @.str.278, ptr noundef %18, i64 noundef 598) #8
  %.not5 = icmp eq i32 %19, 0
  br i1 %.not5, label %105, label %20

20:                                               ; preds = %17
  %21 = load ptr, ptr %1, align 8, !tbaa !21
  %22 = call i32 @test_BN_ge_zero(ptr noundef nonnull @.str.17, i32 noundef 2081, ptr noundef nonnull @.str.242, ptr noundef %21) #8
  %.not6 = icmp eq i32 %22, 0
  br i1 %.not6, label %105, label %23

23:                                               ; preds = %20
  %24 = load ptr, ptr %1, align 8, !tbaa !21
  %25 = call i32 @test_BN_gt_zero(ptr noundef nonnull @.str.17, i32 noundef 2082, ptr noundef nonnull @.str.242, ptr noundef %24) #8
  %.not7 = icmp eq i32 %25, 0
  br i1 %.not7, label %105, label %26

26:                                               ; preds = %23
  %27 = load ptr, ptr %1, align 8, !tbaa !21
  %28 = call i32 @test_BN_ne_zero(ptr noundef nonnull @.str.17, i32 noundef 2083, ptr noundef nonnull @.str.242, ptr noundef %27) #8
  %.not8 = icmp eq i32 %28, 0
  br i1 %.not8, label %105, label %29

29:                                               ; preds = %26
  %30 = load ptr, ptr %1, align 8, !tbaa !21
  %31 = call i32 @test_BN_even(ptr noundef nonnull @.str.17, i32 noundef 2084, ptr noundef nonnull @.str.242, ptr noundef %30) #8
  %.not9 = icmp eq i32 %31, 0
  br i1 %.not9, label %105, label %32

32:                                               ; preds = %29
  %33 = load ptr, ptr %1, align 8, !tbaa !21
  call void @BN_free(ptr noundef %33) #8
  store ptr null, ptr %1, align 8, !tbaa !21
  %34 = call i32 @BN_hex2bn(ptr noundef nonnull %1, ptr noundef nonnull @.str.268) #8
  %35 = call i32 @test_int_eq(ptr noundef nonnull @.str.17, i32 noundef 2089, ptr noundef nonnull @.str.279, ptr noundef nonnull @.str.246, i32 noundef %34, i32 noundef 3) #8
  %.not10 = icmp eq i32 %35, 0
  br i1 %.not10, label %105, label %36

36:                                               ; preds = %32
  %37 = load ptr, ptr %1, align 8, !tbaa !21
  %38 = call i32 @test_BN_abs_eq_word(ptr noundef nonnull @.str.17, i32 noundef 2090, ptr noundef nonnull @.str.242, ptr noundef nonnull @.str.280, ptr noundef %37, i64 noundef 66) #8
  %.not11 = icmp eq i32 %38, 0
  br i1 %.not11, label %105, label %39

39:                                               ; preds = %36
  %40 = load ptr, ptr %1, align 8, !tbaa !21
  %41 = call i32 @test_BN_lt_zero(ptr noundef nonnull @.str.17, i32 noundef 2091, ptr noundef nonnull @.str.242, ptr noundef %40) #8
  %.not12 = icmp eq i32 %41, 0
  br i1 %.not12, label %105, label %42

42:                                               ; preds = %39
  %43 = load ptr, ptr %1, align 8, !tbaa !21
  %44 = call i32 @test_BN_le_zero(ptr noundef nonnull @.str.17, i32 noundef 2092, ptr noundef nonnull @.str.242, ptr noundef %43) #8
  %.not13 = icmp eq i32 %44, 0
  br i1 %.not13, label %105, label %45

45:                                               ; preds = %42
  %46 = load ptr, ptr %1, align 8, !tbaa !21
  %47 = call i32 @test_BN_ne_zero(ptr noundef nonnull @.str.17, i32 noundef 2093, ptr noundef nonnull @.str.242, ptr noundef %46) #8
  %.not14 = icmp eq i32 %47, 0
  br i1 %.not14, label %105, label %48

48:                                               ; preds = %45
  %49 = load ptr, ptr %1, align 8, !tbaa !21
  %50 = call i32 @test_BN_even(ptr noundef nonnull @.str.17, i32 noundef 2094, ptr noundef nonnull @.str.242, ptr noundef %49) #8
  %.not15 = icmp eq i32 %50, 0
  br i1 %.not15, label %105, label %51

51:                                               ; preds = %48
  %52 = load ptr, ptr %1, align 8, !tbaa !21
  call void @BN_free(ptr noundef %52) #8
  store ptr null, ptr %1, align 8, !tbaa !21
  %53 = call i32 @BN_hex2bn(ptr noundef nonnull %1, ptr noundef nonnull @.str.282) #8
  %54 = call i32 @test_int_eq(ptr noundef nonnull @.str.17, i32 noundef 2099, ptr noundef nonnull @.str.281, ptr noundef nonnull @.str.272, i32 noundef %53, i32 noundef 2) #8
  %.not16 = icmp eq i32 %54, 0
  br i1 %.not16, label %105, label %55

55:                                               ; preds = %51
  %56 = load ptr, ptr %1, align 8, !tbaa !21
  %57 = call i32 @test_BN_eq_word(ptr noundef nonnull @.str.17, i32 noundef 2100, ptr noundef nonnull @.str.242, ptr noundef nonnull @.str.283, ptr noundef %56, i64 noundef 203) #8
  %.not17 = icmp eq i32 %57, 0
  br i1 %.not17, label %105, label %58

58:                                               ; preds = %55
  %59 = load ptr, ptr %1, align 8, !tbaa !21
  %60 = call i32 @test_BN_ge_zero(ptr noundef nonnull @.str.17, i32 noundef 2101, ptr noundef nonnull @.str.242, ptr noundef %59) #8
  %.not18 = icmp eq i32 %60, 0
  br i1 %.not18, label %105, label %61

61:                                               ; preds = %58
  %62 = load ptr, ptr %1, align 8, !tbaa !21
  %63 = call i32 @test_BN_gt_zero(ptr noundef nonnull @.str.17, i32 noundef 2102, ptr noundef nonnull @.str.242, ptr noundef %62) #8
  %.not19 = icmp eq i32 %63, 0
  br i1 %.not19, label %105, label %64

64:                                               ; preds = %61
  %65 = load ptr, ptr %1, align 8, !tbaa !21
  %66 = call i32 @test_BN_ne_zero(ptr noundef nonnull @.str.17, i32 noundef 2103, ptr noundef nonnull @.str.242, ptr noundef %65) #8
  %.not20 = icmp eq i32 %66, 0
  br i1 %.not20, label %105, label %67

67:                                               ; preds = %64
  %68 = load ptr, ptr %1, align 8, !tbaa !21
  %69 = call i32 @test_BN_odd(ptr noundef nonnull @.str.17, i32 noundef 2104, ptr noundef nonnull @.str.242, ptr noundef %68) #8
  %.not21 = icmp eq i32 %69, 0
  br i1 %.not21, label %105, label %70

70:                                               ; preds = %67
  %71 = load ptr, ptr %1, align 8, !tbaa !21
  call void @BN_free(ptr noundef %71) #8
  store ptr null, ptr %1, align 8, !tbaa !21
  %72 = call i32 @BN_hex2bn(ptr noundef nonnull %1, ptr noundef nonnull @.str.273) #8
  %73 = call i32 @test_int_eq(ptr noundef nonnull @.str.17, i32 noundef 2109, ptr noundef nonnull @.str.284, ptr noundef nonnull @.str.272, i32 noundef %72, i32 noundef 2) #8
  %.not22 = icmp eq i32 %73, 0
  br i1 %.not22, label %105, label %74

74:                                               ; preds = %70
  %75 = load ptr, ptr %1, align 8, !tbaa !21
  %76 = call i32 @test_BN_eq_zero(ptr noundef nonnull @.str.17, i32 noundef 2110, ptr noundef nonnull @.str.242, ptr noundef %75) #8
  %.not23 = icmp eq i32 %76, 0
  br i1 %.not23, label %105, label %77

77:                                               ; preds = %74
  %78 = load ptr, ptr %1, align 8, !tbaa !21
  %79 = call i32 @test_BN_ge_zero(ptr noundef nonnull @.str.17, i32 noundef 2111, ptr noundef nonnull @.str.242, ptr noundef %78) #8
  %.not24 = icmp eq i32 %79, 0
  br i1 %.not24, label %105, label %80

80:                                               ; preds = %77
  %81 = load ptr, ptr %1, align 8, !tbaa !21
  %82 = call i32 @test_BN_le_zero(ptr noundef nonnull @.str.17, i32 noundef 2112, ptr noundef nonnull @.str.242, ptr noundef %81) #8
  %.not25 = icmp eq i32 %82, 0
  br i1 %.not25, label %105, label %83

83:                                               ; preds = %80
  %84 = load ptr, ptr %1, align 8, !tbaa !21
  %85 = call i32 @test_BN_even(ptr noundef nonnull @.str.17, i32 noundef 2113, ptr noundef nonnull @.str.242, ptr noundef %84) #8
  %.not26 = icmp eq i32 %85, 0
  br i1 %.not26, label %105, label %86

86:                                               ; preds = %83
  %87 = load ptr, ptr %1, align 8, !tbaa !21
  call void @BN_free(ptr noundef %87) #8
  store ptr null, ptr %1, align 8, !tbaa !21
  %88 = call i32 @BN_hex2bn(ptr noundef nonnull %1, ptr noundef nonnull @.str.286) #8
  %89 = call i32 @test_int_eq(ptr noundef nonnull @.str.17, i32 noundef 2118, ptr noundef nonnull @.str.285, ptr noundef nonnull @.str.246, i32 noundef %88, i32 noundef 3) #8
  %.not27 = icmp eq i32 %89, 0
  br i1 %.not27, label %105, label %90

90:                                               ; preds = %86
  %91 = load ptr, ptr %1, align 8, !tbaa !21
  %92 = call i32 @test_BN_eq_word(ptr noundef nonnull @.str.17, i32 noundef 2119, ptr noundef nonnull @.str.242, ptr noundef nonnull @.str.287, ptr noundef %91, i64 noundef 2748) #8
  %.not28 = icmp eq i32 %92, 0
  br i1 %.not28, label %105, label %93

93:                                               ; preds = %90
  %94 = load ptr, ptr %1, align 8, !tbaa !21
  %95 = call i32 @test_BN_ge_zero(ptr noundef nonnull @.str.17, i32 noundef 2120, ptr noundef nonnull @.str.242, ptr noundef %94) #8
  %.not29 = icmp eq i32 %95, 0
  br i1 %.not29, label %105, label %96

96:                                               ; preds = %93
  %97 = load ptr, ptr %1, align 8, !tbaa !21
  %98 = call i32 @test_BN_gt_zero(ptr noundef nonnull @.str.17, i32 noundef 2121, ptr noundef nonnull @.str.242, ptr noundef %97) #8
  %.not30 = icmp eq i32 %98, 0
  br i1 %.not30, label %105, label %99

99:                                               ; preds = %96
  %100 = load ptr, ptr %1, align 8, !tbaa !21
  %101 = call i32 @test_BN_ne_zero(ptr noundef nonnull @.str.17, i32 noundef 2122, ptr noundef nonnull @.str.242, ptr noundef %100) #8
  %.not31 = icmp eq i32 %101, 0
  br i1 %.not31, label %105, label %102

102:                                              ; preds = %99
  %103 = load ptr, ptr %1, align 8, !tbaa !21
  %104 = call i32 @test_BN_even(ptr noundef nonnull @.str.17, i32 noundef 2123, ptr noundef nonnull @.str.242, ptr noundef %103) #8
  %.not32 = icmp ne i32 %104, 0
  %spec.select = zext i1 %.not32 to i32
  br label %105

105:                                              ; preds = %102, %86, %90, %93, %96, %99, %70, %74, %77, %80, %83, %51, %55, %58, %61, %64, %67, %32, %36, %39, %42, %45, %48, %13, %17, %20, %23, %26, %29, %0, %4, %7, %10
  %.0 = phi i32 [ 0, %99 ], [ 0, %96 ], [ 0, %93 ], [ 0, %90 ], [ 0, %86 ], [ 0, %83 ], [ 0, %80 ], [ 0, %77 ], [ 0, %74 ], [ 0, %70 ], [ 0, %67 ], [ 0, %64 ], [ 0, %61 ], [ 0, %58 ], [ 0, %55 ], [ 0, %51 ], [ 0, %48 ], [ 0, %45 ], [ 0, %42 ], [ 0, %39 ], [ 0, %36 ], [ 0, %32 ], [ 0, %29 ], [ 0, %26 ], [ 0, %23 ], [ 0, %20 ], [ 0, %17 ], [ 0, %13 ], [ 0, %10 ], [ 0, %7 ], [ 0, %4 ], [ 0, %0 ], [ %spec.select, %102 ]
  %106 = load ptr, ptr %1, align 8, !tbaa !21
  call void @BN_free(ptr noundef %106) #8
  call void @llvm.lifetime.end.p0(i64 8, ptr nonnull %1) #8
  ret i32 %.0
}